; Function Attrs: mustprogress uwtable
define hidden void @_ZN2cv14TrackerVitImpl10preprocessERKNS_3MatERS1_NS_5Size_IiEE(ptr noundef nonnull align 8 dereferenceable(280) %0, ptr noundef nonnull align 8 dereferenceable(96) %1, ptr noundef nonnull align 8 dereferenceable(96) %2, i64 %3) local_unnamed_addr #0 align 2 personality ptr @__gxx_personality_v0 {
  %5 = alloca %"class.cv::Mat", align 8
  %6 = alloca %"class.cv::_InputArray", align 8
  %7 = alloca %"class.cv::_OutputArray", align 8
  %8 = alloca %"class.cv::Mat", align 8
  %9 = alloca %"class.cv::_InputArray", align 8
  call void @llvm.lifetime.start.p0(i64 96, ptr nonnull %5) #22
  call void @_ZN2cv3MatC1Ev(ptr noundef nonnull align 8 dereferenceable(96) %5) #22
  call void @llvm.lifetime.start.p0(i64 24, ptr nonnull %6) #22
  %10 = getelementptr inbounds nuw i8, ptr %6, i64 16
  store i32 0, ptr %10, align 8, !tbaa !27
  %11 = getelementptr inbounds nuw i8, ptr %6, i64 20
  store i32 0, ptr %11, align 4, !tbaa !29
  store i32 16842752, ptr %6, align 8, !tbaa !30
  %12 = getelementptr inbounds nuw i8, ptr %6, i64 8
  store ptr %1, ptr %12, align 8, !tbaa !32
  call void @llvm.lifetime.start.p0(i64 24, ptr nonnull %7) #22
  %13 = getelementptr inbounds nuw i8, ptr %7, i64 8
  %14 = getelementptr inbounds nuw i8, ptr %7, i64 16
  store i64 0, ptr %14, align 8
  store i32 33619968, ptr %7, align 8, !tbaa !30
  store ptr %5, ptr %13, align 8, !tbaa !32
  invoke void @_ZN2cv6resizeERKNS_11_InputArrayERKNS_12_OutputArrayENS_5Size_IiEEddi(ptr noundef nonnull align 8 dereferenceable(24) %6, ptr noundef nonnull align 8 dereferenceable(24) %7, i64 %3, double noundef 0.000000e+00, double noundef 0.000000e+00, i32 noundef 1)
          to label %15 unwind label %23

15:                                               ; preds = %4
  call void @llvm.lifetime.end.p0(i64 24, ptr nonnull %7) #22
  call void @llvm.lifetime.end.p0(i64 24, ptr nonnull %6) #22
  call void @llvm.lifetime.start.p0(i64 96, ptr nonnull %8) #22
  call void @llvm.lifetime.start.p0(i64 24, ptr nonnull %9) #22
  %16 = getelementptr inbounds nuw i8, ptr %9, i64 16
  store i32 0, ptr %16, align 8, !tbaa !27
  %17 = getelementptr inbounds nuw i8, ptr %9, i64 20
  store i32 0, ptr %17, align 4, !tbaa !29
  store i32 16842752, ptr %9, align 8, !tbaa !30
  %18 = getelementptr inbounds nuw i8, ptr %9, i64 8
  store ptr %5, ptr %18, align 8, !tbaa !32
  %19 = getelementptr inbounds nuw i8, ptr %0, i64 32
  invoke void @_ZN2cv3dnn14dnn4_v2024122323blobFromImageWithParamsERKNS_11_InputArrayERKNS1_16Image2BlobParamsE(ptr dead_on_unwind nonnull writable sret(%"class.cv::Mat") align 8 %8, ptr noundef nonnull align 8 dereferenceable(24) %9, ptr noundef nonnull align 8 dereferenceable(120) %19)
          to label %20 unwind label %25

20:                                               ; preds = %15
  %21 = invoke noundef nonnull align 8 dereferenceable(96) ptr @_ZN2cv3MataSEOS0_(ptr noundef nonnull align 8 dereferenceable(96) %2, ptr noundef nonnull align 8 dereferenceable(96) %8)
          to label %22 unwind label %27

22:                                               ; preds = %20
  call void @_ZN2cv3MatD1Ev(ptr noundef nonnull align 8 dereferenceable(96) %8) #22
  call void @llvm.lifetime.end.p0(i64 24, ptr nonnull %9) #22
  call void @llvm.lifetime.end.p0(i64 96, ptr nonnull %8) #22
  call void @_ZN2cv3MatD1Ev(ptr noundef nonnull align 8 dereferenceable(96) %5) #22
  call void @llvm.lifetime.end.p0(i64 96, ptr nonnull %5) #22
  ret void

23:                                               ; preds = %4
  %24 = landingpad { ptr, i32 }
          cleanup
  call void @llvm.lifetime.end.p0(i64 24, ptr nonnull %7) #22
  call void @llvm.lifetime.end.p0(i64 24, ptr nonnull %6) #22
  br label %30

25:                                               ; preds = %15
  %26 = landingpad { ptr, i32 }
          cleanup
  br label %29

27:                                               ; preds = %20
  %28 = landingpad { ptr, i32 }
          cleanup
  call void @_ZN2cv3MatD1Ev(ptr noundef nonnull align 8 dereferenceable(96) %8) #22
  br label %29

29:                                               ; preds = %25, %27
  %.pn12.pn = phi { ptr, i32 } [ %28, %27 ], [ %26, %25 ]
  call void @llvm.lifetime.end.p0(i64 24, ptr nonnull %9) #22
  call void @llvm.lifetime.end.p0(i64 96, ptr nonnull %8) #22
  br label %30

30:                                               ; preds = %29, %23
  %.pn12.pn.pn = phi { ptr, i32 } [ %.pn12.pn, %29 ], [ %24, %23 ]
  call void @_ZN2cv3MatD1Ev(ptr noundef nonnull align 8 dereferenceable(96) %5) #22
  call void @llvm.lifetime.end.p0(i64 96, ptr nonnull %5) #22
  resume { ptr, i32 } %.pn12.pn.pn
}